target datalayout = "e-m:e-p270:32:32-p271:32:32-p272:64:64-i64:64-i128:128-f80:128-n8:16:32:64-S128"
target triple = "x86_64-pc-linux-gnu"

%struct._asn1_ctx_t = type { i32, i32, i8, ptr, ptr, ptr, ptr, ptr, %struct.anon, %struct.anon.2, %struct.anon.3, ptr }
%struct.anon = type { i32, i8, i8, i8, ptr, ptr, i32, i32, ptr, ptr, ptr, %union.anon }
%union.anon = type { %struct.anon.0 }
%struct.anon.0 = type { ptr }
%struct.anon.2 = type { ptr, ptr, ptr }
%struct.anon.3 = type { i32, i8, ptr, i32, i32, ptr, ptr, ptr, %union.anon.4 }
%union.anon.4 = type { %struct.anon.5 }
%struct.anon.5 = type { ptr }
%struct._proto_node = type { ptr, ptr, ptr, ptr, ptr, ptr, ptr }
%struct.field_info = type { ptr, i32, i32, i32, i32, i32, i32, ptr, ptr, ptr, i32, i32 }

@.str.6926 = private unnamed_addr constant [22 x i8] c"%g semi-circles (%ld)\00", align 1

; Function Attrs: inlinehint nounwind null_pointer_is_valid sspstrong uwtable
define internal void @proto_item_set_hidden(ptr noundef %0) #4 {
  %2 = alloca ptr, align 8
  store ptr %0, ptr %2, align 8
  %3 = load ptr, ptr %2, align 8
  %4 = icmp ne ptr %3, null
  br i1 %4, label %5, label %24

5:                                                ; preds = %1
  br label %6

6:                                                ; preds = %5
  %7 = load ptr, ptr %2, align 8
  %8 = getelementptr inbounds nuw %struct._proto_node, ptr %7, i32 0, i32 5
  %9 = load ptr, ptr %8, align 8
  %10 = icmp ne ptr %9, null
  br i1 %10, label %11, label %22

11:                                               ; preds = %6
  %12 = load ptr, ptr %2, align 8
  %13 = getelementptr inbounds nuw %struct._proto_node, ptr %12, i32 0, i32 5
  %14 = load ptr, ptr %13, align 8
  %15 = getelementptr inbounds nuw %struct.field_info, ptr %14, i32 0, i32 6
  %16 = load i32, ptr %15, align 4
  %17 = or i32 %16, 1
  %18 = load ptr, ptr %2, align 8
  %19 = getelementptr inbounds nuw %struct._proto_node, ptr %18, i32 0, i32 5
  %20 = load ptr, ptr %19, align 8
  %21 = getelementptr inbounds nuw %struct.field_info, ptr %20, i32 0, i32 6
  store i32 %17, ptr %21, align 4
  br label %22

22:                                               ; preds = %11, %6
  br label %23

23:                                               ; preds = %22
  br label %24

24:                                               ; preds = %23, %1
  ret void
}

; Function Attrs: null_pointer_is_valid sspstrong uwtable
define internal i32 @dissect_lpp_T_cnavIo(ptr noundef %0, i32 noundef %1, ptr noundef %2, ptr noundef %3, i32 noundef %4) #0 {
  %6 = alloca ptr, align 8
  %7 = alloca i32, align 4
  %8 = alloca ptr, align 8
  %9 = alloca ptr, align 8
  %10 = alloca i32, align 4
  %11 = alloca i64, align 8
  %12 = alloca i32, align 4
  store ptr %0, ptr %6, align 8
  store i32 %1, ptr %7, align 4
  store ptr %2, ptr %8, align 8
  store ptr %3, ptr %9, align 8
  store i32 %4, ptr %10, align 4
  call void @llvm.lifetime.start.p0(i64 8, ptr %11) #8
  call void @llvm.lifetime.start.p0(i64 4, ptr %12) #8
  %13 = load i32, ptr %7, align 4
  store i32 %13, ptr %12, align 4
  %14 = load ptr, ptr %6, align 8
  %15 = load i32, ptr %7, align 4
  %16 = load ptr, ptr %8, align 8
  %17 = load ptr, ptr %9, align 8
  %18 = load i32, ptr %10, align 4
  %19 = call i32 @dissect_per_constrained_integer_64b(ptr noundef %14, i32 noundef %15, ptr noundef %16, ptr noundef %17, i32 noundef %18, i64 noundef -4294967296, i64 noundef 4294967295, ptr noundef %11, i1 noundef zeroext false)
  store i32 %19, ptr %7, align 4
  %20 = load ptr, ptr %8, align 8
  %21 = getelementptr inbounds nuw %struct._asn1_ctx_t, ptr %20, i32 0, i32 4
  %22 = load ptr, ptr %21, align 8
  call void @proto_item_set_hidden(ptr noundef %22)
  %23 = load ptr, ptr %9, align 8
  %24 = load i32, ptr %10, align 4
  %25 = load ptr, ptr %6, align 8
  %26 = load i32, ptr %12, align 4
  %27 = ashr i32 %26, 3
  %28 = load i32, ptr %7, align 4
  %29 = add i32 %28, 7
  %30 = load i32, ptr %12, align 4
  %31 = sub i32 %29, %30
  %32 = ashr i32 %31, 3
  %33 = load i64, ptr %11, align 8
  %34 = load i64, ptr %11, align 8
  %35 = sitofp i64 %34 to double
  %36 = call double @pow(double noundef 2.000000e+00, double noundef -3.200000e+01) #8
  %37 = fmul double %35, %36
  %38 = load i64, ptr %11, align 8
  %39 = call ptr (ptr, i32, ptr, i32, i32, i64, ptr, ...) @proto_tree_add_int64_format_value(ptr noundef %23, i32 noundef %24, ptr noundef %25, i32 noundef %27, i32 noundef %32, i64 noundef %33, ptr noundef @.str.6926, double noundef %37, i64 noundef %38)
  %40 = load ptr, ptr %8, align 8
  %41 = getelementptr inbounds nuw %struct._asn1_ctx_t, ptr %40, i32 0, i32 4
  store ptr %39, ptr %41, align 8
  %42 = load i32, ptr %7, align 4
  call void @llvm.lifetime.end.p0(i64 4, ptr %12) #8
  call void @llvm.lifetime.end.p0(i64 8, ptr %11) #8
  ret i32 %42
}